; Function Attrs: nofree norecurse nosync nounwind memory(read, argmem: readwrite, inaccessiblemem: none) uwtable
define void @Amap_ManCreateChoice(ptr noundef captures(none) %0, ptr noundef captures(none) %1) local_unnamed_addr #4 {
  %3 = load i64, ptr %1, align 8
  %4 = or i64 %3, 4611686018427387904
  store i64 %4, ptr %1, align 8
  %5 = getelementptr inbounds nuw i8, ptr %1, i64 8
  %.promoted = load i32, ptr %5, align 8, !tbaa !33
  %6 = getelementptr i8, ptr %0, i64 48
  br label %7

7:                                                ; preds = %2, %Amap_ObjChoice.exit
  %.013 = phi ptr [ %1, %2 ], [ %16, %Amap_ObjChoice.exit ]
  %8 = phi i32 [ %.promoted, %2 ], [ %11, %Amap_ObjChoice.exit ]
  %9 = getelementptr inbounds nuw i8, ptr %.013, i64 8
  %10 = load i32, ptr %9, align 8, !tbaa !33
  %11 = tail call noundef i32 @llvm.smax.i32(i32 %8, i32 %10)
  store i32 %11, ptr %5, align 8, !tbaa !33
  %12 = getelementptr i8, ptr %.013, i64 20
  %.0.val = load i32, ptr %12, align 4, !tbaa !35
  %.not.i = icmp eq i32 %.0.val, 0
  br i1 %.not.i, label %Amap_ObjChoice.exit.thread, label %Amap_ObjChoice.exit

Amap_ObjChoice.exit:                              ; preds = %7
  %.val.i = load ptr, ptr %6, align 8, !tbaa !21
  %13 = getelementptr i8, ptr %.val.i, i64 8
  %.val.val.i = load ptr, ptr %13, align 8, !tbaa !25
  %14 = sext i32 %.0.val to i64
  %15 = getelementptr inbounds ptr, ptr %.val.val.i, i64 %14
  %16 = load ptr, ptr %15, align 8, !tbaa !26
  %.not = icmp eq ptr %16, null
  br i1 %.not, label %Amap_ObjChoice.exit.thread, label %7, !llvm.loop !36

Amap_ObjChoice.exit.thread:                       ; preds = %7, %Amap_ObjChoice.exit
  %17 = getelementptr inbounds nuw i8, ptr %0, i64 124
  %18 = load i32, ptr %17, align 4, !tbaa !34
  %19 = icmp slt i32 %18, %11
  br i1 %19, label %20, label %21

20:                                               ; preds = %Amap_ObjChoice.exit.thread
  store i32 %11, ptr %17, align 4, !tbaa !34
  br label %21

21:                                               ; preds = %20, %Amap_ObjChoice.exit.thread
  ret void
}